target datalayout = "e-m:e-p270:32:32-p271:32:32-p272:64:64-i64:64-i128:128-f80:128-n8:16:32:64-S128"
target triple = "x86_64-pc-linux-gnu"

%struct.avifROData = type { ptr, i64 }
%struct.avifROStream = type { ptr, i64, i64, ptr, ptr }
%struct.avifProperty = type { [4 x i8], %union.anon }
%union.anon = type { %struct.avifColourInformationBox, [24 x i8] }
%struct.avifColourInformationBox = type { i32, i64, i64, i32, i16, i16, i16, i32 }
%struct.avifLayerSelectorProperty = type { i16 }

@.str.87 = private unnamed_addr constant [10 x i8] c"Box[lsel]\00", align 1
@.str.88 = private unnamed_addr constant [45 x i8] c"Box[lsel] contains an unsupported layer [%u]\00", align 1

; Function Attrs: nounwind uwtable
define internal i32 @avifParseLayerSelectorProperty(ptr noundef %0, ptr noundef %1, i64 noundef %2, ptr noundef %3) #0 {
  %5 = alloca i32, align 4
  %6 = alloca ptr, align 8
  %7 = alloca ptr, align 8
  %8 = alloca i64, align 8
  %9 = alloca ptr, align 8
  %10 = alloca %struct.avifROStream, align 8
  %11 = alloca %struct.avifROData, align 8
  %12 = alloca ptr, align 8
  store ptr %0, ptr %6, align 8
  store ptr %1, ptr %7, align 8
  store i64 %2, ptr %8, align 8
  store ptr %3, ptr %9, align 8
  %13 = load ptr, ptr %7, align 8
  %14 = getelementptr inbounds nuw %struct.avifROData, ptr %11, i32 0, i32 0
  store ptr %13, ptr %14, align 8
  %15 = load i64, ptr %8, align 8
  %16 = getelementptr inbounds nuw %struct.avifROData, ptr %11, i32 0, i32 1
  store i64 %15, ptr %16, align 8
  %17 = load ptr, ptr %9, align 8
  call void @avifROStreamStart(ptr noundef %10, ptr noundef %11, ptr noundef %17, ptr noundef @.str.87)
  %18 = load ptr, ptr %6, align 8
  %19 = getelementptr inbounds nuw %struct.avifProperty, ptr %18, i32 0, i32 1
  store ptr %19, ptr %12, align 8
  br label %20

20:                                               ; preds = %4
  %21 = load ptr, ptr %12, align 8
  %22 = getelementptr inbounds nuw %struct.avifLayerSelectorProperty, ptr %21, i32 0, i32 0
  %23 = call i32 @avifROStreamReadU16(ptr noundef %10, ptr noundef %22)
  %24 = icmp ne i32 %23, 0
  br i1 %24, label %26, label %25

25:                                               ; preds = %20
  store i32 0, ptr %5, align 4
  br label %46

26:                                               ; preds = %20
  br label %27

27:                                               ; preds = %26
  %28 = load ptr, ptr %12, align 8
  %29 = getelementptr inbounds nuw %struct.avifLayerSelectorProperty, ptr %28, i32 0, i32 0
  %30 = load i16, ptr %29, align 2
  %31 = zext i16 %30 to i32
  %32 = icmp ne i32 %31, 65535
  br i1 %32, label %33, label %45

33:                                               ; preds = %27
  %34 = load ptr, ptr %12, align 8
  %35 = getelementptr inbounds nuw %struct.avifLayerSelectorProperty, ptr %34, i32 0, i32 0
  %36 = load i16, ptr %35, align 2
  %37 = zext i16 %36 to i32
  %38 = icmp sge i32 %37, 4
  br i1 %38, label %39, label %45

39:                                               ; preds = %33
  %40 = load ptr, ptr %9, align 8
  %41 = load ptr, ptr %12, align 8
  %42 = getelementptr inbounds nuw %struct.avifLayerSelectorProperty, ptr %41, i32 0, i32 0
  %43 = load i16, ptr %42, align 2
  %44 = zext i16 %43 to i32
  call void (ptr, ptr, ...) @avifDiagnosticsPrintf(ptr noundef %40, ptr noundef @.str.88, i32 noundef %44)
  store i32 0, ptr %5, align 4
  br label %46

45:                                               ; preds = %33, %27
  store i32 1, ptr %5, align 4
  br label %46

46:                                               ; preds = %45, %39, %25
  %47 = load i32, ptr %5, align 4
  ret i32 %47
}