; Function Attrs: nounwind uwtable
define internal fastcc range(i32 0, 2) i32 @avifParseLayerSelectorProperty(ptr noundef nonnull %0, ptr noundef %1, i64 noundef %2, ptr noundef %3) unnamed_addr #0 {
  %5 = alloca %struct.avifROStream, align 8
  %6 = alloca %struct.avifROData, align 8
  store ptr %1, ptr %6, align 8
  %7 = getelementptr inbounds nuw i8, ptr %6, i64 8
  store i64 %2, ptr %7, align 8
  call void @avifROStreamStart(ptr noundef nonnull %5, ptr noundef nonnull %6, ptr noundef %3, ptr noundef nonnull @.str.87) #13
  %8 = getelementptr inbounds nuw i8, ptr %0, i64 8
  %9 = call i32 @avifROStreamReadU16(ptr noundef nonnull %5, ptr noundef nonnull %8) #13
  %.not = icmp eq i32 %9, 0
  br i1 %.not, label %switch.lookup, label %10

10:                                               ; preds = %4
  %11 = load i16, ptr %8, align 2
  %switch.tableidx = add i16 %11, 1
  %12 = icmp ult i16 %switch.tableidx, 5
  br i1 %12, label %switch.lookup, label %13

13:                                               ; preds = %10
  %14 = zext i16 %11 to i32
  call void (ptr, ptr, ...) @avifDiagnosticsPrintf(ptr noundef %3, ptr noundef nonnull @.str.88, i32 noundef %14) #13
  br label %switch.lookup

switch.lookup:                                    ; preds = %10, %4, %13
  %.0 = phi i32 [ 0, %13 ], [ 0, %4 ], [ 1, %10 ]
  ret i32 %.0
}